; Function Attrs: nounwind uwtable
define ptr @l_Lean_KVMap_updateInt(ptr noundef %0, ptr noundef %1, ptr noundef %2) local_unnamed_addr #0 {
  %4 = load ptr, ptr @l___private_Lean_Data_KVMap_0__Lean_reprDataValue____x40_Lean_Data_KVMap___hyg_253____closed__18, align 8, !tbaa !4
  %5 = tail call ptr @l_Lean_KVMap_getInt(ptr noundef %0, ptr noundef %1, ptr noundef %4)
  %6 = tail call ptr @lean_apply_1(ptr noundef %2, ptr noundef %5) #6
  tail call void @lean_inc_heartbeat() #6
  %7 = tail call noalias ptr @mi_malloc_small(i64 noundef 16) #6
  %8 = icmp eq ptr %7, null
  br i1 %8, label %9, label %lean_alloc_ctor.exit

9:                                                ; preds = %3
  tail call void @lean_internal_panic_out_of_memory() #7
  unreachable

lean_alloc_ctor.exit:                             ; preds = %3
  %10 = getelementptr inbounds nuw i8, ptr %7, i64 4
  store i32 1, ptr %7, align 4, !tbaa !8
  store i32 67174416, ptr %10, align 4
  %11 = getelementptr inbounds nuw i8, ptr %7, i64 8
  store ptr %6, ptr %11, align 8, !tbaa !4
  %12 = tail call ptr @l_Lean_KVMap_insertCore(ptr noundef %0, ptr noundef %1, ptr noundef nonnull %7)
  ret ptr %12
}